target datalayout = "e-m:e-p270:32:32-p271:32:32-p272:64:64-i64:64-i128:128-f80:128-n8:16:32:64-S128"
target triple = "x86_64-pc-linux-gnu"

%struct.PLpgSQL_execstate = type { ptr, ptr, ptr, i64, i8, i32, i32, i8, i8, i8, i8, ptr, ptr, ptr, ptr, ptr, ptr, ptr, i32, i32, ptr, ptr, ptr, ptr, ptr, ptr, ptr, ptr, ptr, ptr, i64, ptr, ptr, ptr, ptr, ptr }
%struct.ExprContext = type { i32, ptr, ptr, ptr, ptr, ptr, ptr, ptr, ptr, ptr, i64, i8, i64, i8, ptr, ptr, ptr, ptr }
%struct.ParamListInfoData = type { ptr, ptr, ptr, ptr, ptr, ptr, ptr, i32, [0 x %struct.ParamExternData] }
%struct.ParamExternData = type { i64, i8, i16, i32 }
%struct.StringInfoData = type { ptr, i32, i32, i32 }

@CurrentMemoryContext = external global ptr, align 8
@.str.55 = private unnamed_addr constant [1 x i8] zeroinitializer, align 1
@.str.125 = private unnamed_addr constant [3 x i8] c", \00", align 1
@.str.126 = private unnamed_addr constant [5 x i8] c"NULL\00", align 1
@.str.130 = private unnamed_addr constant [9 x i8] c"%s$%d = \00", align 1

; Function Attrs: nounwind uwtable
define internal ptr @convert_value_to_string(ptr noundef %0, i64 noundef %1, i32 noundef %2) #0 {
  %4 = alloca ptr, align 8
  %5 = alloca i64, align 8
  %6 = alloca i32, align 4
  %7 = alloca ptr, align 8
  %8 = alloca ptr, align 8
  %9 = alloca i32, align 4
  %10 = alloca i8, align 1
  store ptr %0, ptr %4, align 8
  store i64 %1, ptr %5, align 8
  store i32 %2, ptr %6, align 4
  call void @llvm.lifetime.start.p0(i64 8, ptr %7) #12
  call void @llvm.lifetime.start.p0(i64 8, ptr %8) #12
  call void @llvm.lifetime.start.p0(i64 4, ptr %9) #12
  call void @llvm.lifetime.start.p0(i64 1, ptr %10) #12
  %11 = load ptr, ptr %4, align 8
  %12 = getelementptr inbounds nuw %struct.PLpgSQL_execstate, ptr %11, i32 0, i32 31
  %13 = load ptr, ptr %12, align 8
  %14 = getelementptr inbounds nuw %struct.ExprContext, ptr %13, i32 0, i32 5
  %15 = load ptr, ptr %14, align 8
  %16 = call ptr @MemoryContextSwitchTo(ptr noundef %15)
  store ptr %16, ptr %8, align 8
  %17 = load i32, ptr %6, align 4
  call void @getTypeOutputInfo(i32 noundef %17, ptr noundef %9, ptr noundef %10)
  %18 = load i32, ptr %9, align 4
  %19 = load i64, ptr %5, align 8
  %20 = call ptr @OidOutputFunctionCall(i32 noundef %18, i64 noundef %19)
  store ptr %20, ptr %7, align 8
  %21 = load ptr, ptr %8, align 8
  %22 = call ptr @MemoryContextSwitchTo(ptr noundef %21)
  %23 = load ptr, ptr %7, align 8
  call void @llvm.lifetime.end.p0(i64 1, ptr %10) #12
  call void @llvm.lifetime.end.p0(i64 4, ptr %9) #12
  call void @llvm.lifetime.end.p0(i64 8, ptr %8) #12
  call void @llvm.lifetime.end.p0(i64 8, ptr %7) #12
  ret ptr %23
}

; Function Attrs: inlinehint nounwind uwtable
define internal ptr @MemoryContextSwitchTo(ptr noundef %0) #2 {
  %2 = alloca ptr, align 8
  %3 = alloca ptr, align 8
  store ptr %0, ptr %2, align 8
  call void @llvm.lifetime.start.p0(i64 8, ptr %3) #12
  %4 = load ptr, ptr @CurrentMemoryContext, align 8
  store ptr %4, ptr %3, align 8
  %5 = load ptr, ptr %2, align 8
  store ptr %5, ptr @CurrentMemoryContext, align 8
  %6 = load ptr, ptr %3, align 8
  call void @llvm.lifetime.end.p0(i64 8, ptr %3) #12
  ret ptr %6
}

; Function Attrs: nounwind uwtable
define internal ptr @format_preparedparamsdata(ptr noundef %0, ptr noundef %1) #0 {
  %3 = alloca ptr, align 8
  %4 = alloca ptr, align 8
  %5 = alloca ptr, align 8
  %6 = alloca i32, align 4
  %7 = alloca %struct.StringInfoData, align 8
  %8 = alloca ptr, align 8
  %9 = alloca i32, align 4
  %10 = alloca ptr, align 8
  store ptr %0, ptr %4, align 8
  store ptr %1, ptr %5, align 8
  call void @llvm.lifetime.start.p0(i64 4, ptr %6) #12
  call void @llvm.lifetime.start.p0(i64 24, ptr %7) #12
  call void @llvm.lifetime.start.p0(i64 8, ptr %8) #12
  %11 = load ptr, ptr %5, align 8
  %12 = icmp ne ptr %11, null
  br i1 %12, label %14, label %13

13:                                               ; preds = %2
  store ptr null, ptr %3, align 8
  store i32 1, ptr %9, align 4
  br label %61

14:                                               ; preds = %2
  %15 = load ptr, ptr %4, align 8
  %16 = getelementptr inbounds nuw %struct.PLpgSQL_execstate, ptr %15, i32 0, i32 31
  %17 = load ptr, ptr %16, align 8
  %18 = getelementptr inbounds nuw %struct.ExprContext, ptr %17, i32 0, i32 5
  %19 = load ptr, ptr %18, align 8
  %20 = call ptr @MemoryContextSwitchTo(ptr noundef %19)
  store ptr %20, ptr %8, align 8
  call void @initStringInfo(ptr noundef %7)
  store i32 0, ptr %6, align 4
  br label %21

21:                                               ; preds = %53, %14
  %22 = load i32, ptr %6, align 4
  %23 = load ptr, ptr %5, align 8
  %24 = getelementptr inbounds nuw %struct.ParamListInfoData, ptr %23, i32 0, i32 7
  %25 = load i32, ptr %24, align 8
  %26 = icmp slt i32 %22, %25
  br i1 %26, label %27, label %56

27:                                               ; preds = %21
  call void @llvm.lifetime.start.p0(i64 8, ptr %10) #12
  %28 = load ptr, ptr %5, align 8
  %29 = getelementptr inbounds nuw %struct.ParamListInfoData, ptr %28, i32 0, i32 8
  %30 = load i32, ptr %6, align 4
  %31 = sext i32 %30 to i64
  %32 = getelementptr inbounds [0 x %struct.ParamExternData], ptr %29, i64 0, i64 %31
  store ptr %32, ptr %10, align 8
  %33 = load i32, ptr %6, align 4
  %34 = icmp sgt i32 %33, 0
  %35 = select i1 %34, ptr @.str.125, ptr @.str.55
  %36 = load i32, ptr %6, align 4
  %37 = add i32 %36, 1
  call void (ptr, ptr, ...) @appendStringInfo(ptr noundef %7, ptr noundef @.str.130, ptr noundef %35, i32 noundef %37)
  %38 = load ptr, ptr %10, align 8
  %39 = getelementptr inbounds nuw %struct.ParamExternData, ptr %38, i32 0, i32 1
  %40 = load i8, ptr %39, align 8, !range !3, !noundef !4
  %41 = trunc i8 %40 to i1
  br i1 %41, label %42, label %43

42:                                               ; preds = %27
  call void @appendStringInfoString(ptr noundef %7, ptr noundef @.str.126)
  br label %52

43:                                               ; preds = %27
  %44 = load ptr, ptr %4, align 8
  %45 = load ptr, ptr %10, align 8
  %46 = getelementptr inbounds nuw %struct.ParamExternData, ptr %45, i32 0, i32 0
  %47 = load i64, ptr %46, align 8
  %48 = load ptr, ptr %10, align 8
  %49 = getelementptr inbounds nuw %struct.ParamExternData, ptr %48, i32 0, i32 3
  %50 = load i32, ptr %49, align 4
  %51 = call ptr @convert_value_to_string(ptr noundef %44, i64 noundef %47, i32 noundef %50)
  call void @appendStringInfoStringQuoted(ptr noundef %7, ptr noundef %51, i32 noundef -1)
  br label %52

52:                                               ; preds = %43, %42
  call void @llvm.lifetime.end.p0(i64 8, ptr %10) #12
  br label %53

53:                                               ; preds = %52
  %54 = load i32, ptr %6, align 4
  %55 = add i32 %54, 1
  store i32 %55, ptr %6, align 4
  br label %21, !llvm.loop !29

56:                                               ; preds = %21
  %57 = load ptr, ptr %8, align 8
  %58 = call ptr @MemoryContextSwitchTo(ptr noundef %57)
  %59 = getelementptr inbounds nuw %struct.StringInfoData, ptr %7, i32 0, i32 0
  %60 = load ptr, ptr %59, align 8
  store ptr %60, ptr %3, align 8
  store i32 1, ptr %9, align 4
  br label %61

61:                                               ; preds = %56, %13
  call void @llvm.lifetime.end.p0(i64 8, ptr %8) #12
  call void @llvm.lifetime.end.p0(i64 24, ptr %7) #12
  call void @llvm.lifetime.end.p0(i64 4, ptr %6) #12
  %62 = load ptr, ptr %3, align 8
  ret ptr %62
}