; Function Attrs: nounwind uwtable
define internal fastcc ptr @format_preparedparamsdata(ptr noundef nonnull readonly captures(none) %0, ptr noundef readonly captures(address_is_null) %1) unnamed_addr #0 {
  %3 = alloca i32, align 4
  %4 = alloca i8, align 1
  %5 = alloca %struct.StringInfoData, align 8
  call void @llvm.lifetime.start.p0(i64 24, ptr nonnull %5) #12
  %.not = icmp eq ptr %1, null
  br i1 %.not, label %37, label %6

6:                                                ; preds = %2
  %7 = getelementptr inbounds nuw i8, ptr %0, i64 200
  %8 = load ptr, ptr %7, align 8
  %9 = getelementptr inbounds nuw i8, ptr %8, i64 40
  %10 = load ptr, ptr %9, align 8
  %11 = load ptr, ptr @CurrentMemoryContext, align 8
  store ptr %10, ptr @CurrentMemoryContext, align 8
  call void @initStringInfo(ptr noundef nonnull %5) #12
  %12 = getelementptr inbounds nuw i8, ptr %1, i64 56
  %13 = load i32, ptr %12, align 8
  %14 = icmp sgt i32 %13, 0
  br i1 %14, label %.lr.ph, label %._crit_edge

.lr.ph:                                           ; preds = %6
  %15 = getelementptr inbounds nuw i8, ptr %1, i64 64
  br label %16

16:                                               ; preds = %.lr.ph, %32
  %indvars.iv = phi i64 [ 0, %.lr.ph ], [ %indvars.iv.next, %32 ]
  %17 = getelementptr inbounds nuw [0 x %struct.ParamExternData], ptr %15, i64 0, i64 %indvars.iv
  %.not16 = icmp eq i64 %indvars.iv, 0
  %18 = select i1 %.not16, ptr @.str.55, ptr @.str.125
  %indvars.iv.next = add nuw nsw i64 %indvars.iv, 1
  %19 = trunc nuw nsw i64 %indvars.iv.next to i32
  call void (ptr, ptr, ...) @appendStringInfo(ptr noundef nonnull %5, ptr noundef nonnull @.str.130, ptr noundef nonnull %18, i32 noundef %19) #12
  %20 = getelementptr inbounds nuw i8, ptr %17, i64 8
  %21 = load i8, ptr %20, align 8, !range !3, !noundef !4
  %22 = trunc nuw i8 %21 to i1
  br i1 %22, label %23, label %24

23:                                               ; preds = %16
  call void @appendStringInfoString(ptr noundef nonnull %5, ptr noundef nonnull @.str.126) #12
  br label %32

24:                                               ; preds = %16
  %25 = load i64, ptr %17, align 8
  %26 = getelementptr inbounds nuw i8, ptr %17, i64 12
  %27 = load i32, ptr %26, align 4
  %.val = load ptr, ptr %7, align 8
  %28 = getelementptr i8, ptr %.val, i64 40
  %.val.val = load ptr, ptr %28, align 8
  call void @llvm.lifetime.start.p0(i64 4, ptr nonnull %3) #12
  call void @llvm.lifetime.start.p0(i64 1, ptr nonnull %4) #12
  %29 = load ptr, ptr @CurrentMemoryContext, align 8
  store ptr %.val.val, ptr @CurrentMemoryContext, align 8
  call void @getTypeOutputInfo(i32 noundef %27, ptr noundef nonnull %3, ptr noundef nonnull %4) #12
  %30 = load i32, ptr %3, align 4
  %31 = call ptr @OidOutputFunctionCall(i32 noundef %30, i64 noundef %25) #12
  store ptr %29, ptr @CurrentMemoryContext, align 8
  call void @llvm.lifetime.end.p0(i64 1, ptr nonnull %4) #12
  call void @llvm.lifetime.end.p0(i64 4, ptr nonnull %3) #12
  call void @appendStringInfoStringQuoted(ptr noundef nonnull %5, ptr noundef %31, i32 noundef -1) #12
  br label %32

32:                                               ; preds = %24, %23
  %33 = load i32, ptr %12, align 8
  %34 = sext i32 %33 to i64
  %35 = icmp slt i64 %indvars.iv.next, %34
  br i1 %35, label %16, label %._crit_edge, !llvm.loop !24

._crit_edge:                                      ; preds = %32, %6
  store ptr %11, ptr @CurrentMemoryContext, align 8
  %36 = load ptr, ptr %5, align 8
  br label %37

37:                                               ; preds = %2, %._crit_edge
  %.0 = phi ptr [ %36, %._crit_edge ], [ null, %2 ]
  call void @llvm.lifetime.end.p0(i64 24, ptr nonnull %5) #12
  ret ptr %.0
}